; Function Attrs: mustprogress uwtable
define noundef zeroext i1 @_ZNK32pxrInternal_v0_24__pxrReserved__17Usd_InstanceCache28IsPathDescendantToAnInstanceERKNS_7SdfPathE(ptr noundef nonnull align 8 dereferenceable(432) %0, ptr noundef nonnull align 4 dereferenceable(8) %1) local_unnamed_addr #0 align 2 {
  %3 = alloca %"class.pxrInternal_v0_24__pxrReserved__::TfGet", align 1
  %4 = tail call noundef nonnull align 4 dereferenceable(8) ptr @_ZN32pxrInternal_v0_24__pxrReserved__7SdfPath16AbsoluteRootPathEv()
  %.0.copyload.i.i.i = load i64, ptr %1, align 4
  %.0.copyload.i2.i.i = load i64, ptr %4, align 4
  %5 = icmp eq i64 %.0.copyload.i.i.i, %.0.copyload.i2.i.i
  br i1 %5, label %6, label %8

6:                                                ; preds = %2
  %7 = getelementptr inbounds i8, ptr %0, i64 272
  br label %_ZN32pxrInternal_v0_24__pxrReserved__L21_FindEntryForAncestorISt3mapINS_7SdfPathES2_St4lessIS2_ESaISt4pairIKS2_S2_EEEEENT_14const_iteratorERKSA_RS6_.exit

8:                                                ; preds = %2
  %9 = getelementptr inbounds nuw i8, ptr %0, i64 264
  call void @llvm.lifetime.start.p0(i64 1, ptr nonnull %3)
  %10 = call ptr @_ZN32pxrInternal_v0_24__pxrReserved__29Sdf_PathFindLongestPrefixImplISt23_Rb_tree_const_iteratorISt4pairIKNS_7SdfPathES3_EERKSt3mapIS3_S3_St4lessIS3_ESaIS5_EENS_5TfGetILm0EEEEET_T0_RS4_bRKT1_(ptr noundef nonnull align 8 dereferenceable(48) %9, ptr noundef nonnull align 4 dereferenceable(8) %1, i1 noundef zeroext true, ptr noundef nonnull align 1 dereferenceable(1) %3)
  call void @llvm.lifetime.end.p0(i64 1, ptr nonnull %3)
  br label %_ZN32pxrInternal_v0_24__pxrReserved__L21_FindEntryForAncestorISt3mapINS_7SdfPathES2_St4lessIS2_ESaISt4pairIKS2_S2_EEEEENT_14const_iteratorERKSA_RS6_.exit

_ZN32pxrInternal_v0_24__pxrReserved__L21_FindEntryForAncestorISt3mapINS_7SdfPathES2_St4lessIS2_ESaISt4pairIKS2_S2_EEEEENT_14const_iteratorERKSA_RS6_.exit: ; preds = %6, %8
  %.sroa.0.0.i = phi ptr [ %7, %6 ], [ %10, %8 ]
  %11 = getelementptr inbounds i8, ptr %0, i64 272
  %12 = icmp ne ptr %.sroa.0.0.i, %11
  ret i1 %12
}